; ModuleID = '<stdin>'
source_filename = "example1.cpp"
target datalayout = "e-m:e-p270:32:32-p271:32:32-p272:64:64-i64:64-f80:128-n8:16:32:64-S128"
target triple = "x86_64-unknown-linux-gnu"

%"class.std::ios_base::Init" = type { i8 }
%"class.std::basic_ostream" = type { i32 (...)**, %"class.std::basic_ios" }
%"class.std::basic_ios" = type { %"class.std::ios_base", %"class.std::basic_ostream"*, i8, i8, %"class.std::basic_streambuf"*, %"class.std::ctype"*, %"class.std::num_put"*, %"class.std::num_get"* }
%"class.std::ios_base" = type { i32 (...)**, i64, i64, i32, i32, i32, %"struct.std::ios_base::_Callback_list"*, %"struct.std::ios_base::_Words", [8 x %"struct.std::ios_base::_Words"], i32, %"struct.std::ios_base::_Words"*, %"class.std::locale" }
%"struct.std::ios_base::_Callback_list" = type { %"struct.std::ios_base::_Callback_list"*, void (i32, %"class.std::ios_base"*, i32)*, i32, i32 }
%"struct.std::ios_base::_Words" = type { i8*, i64 }
%"class.std::locale" = type { %"class.std::locale::_Impl"* }
%"class.std::locale::_Impl" = type { i32, %"class.std::locale::facet"**, i64, %"class.std::locale::facet"**, i8** }
%"class.std::locale::facet" = type <{ i32 (...)**, i32, [4 x i8] }>
%"class.std::basic_streambuf" = type { i32 (...)**, i8*, i8*, i8*, i8*, i8*, i8*, %"class.std::locale" }
%"class.std::ctype" = type <{ %"class.std::locale::facet.base", [4 x i8], %struct.__locale_struct*, i8, [7 x i8], i32*, i32*, i16*, i8, [256 x i8], [256 x i8], i8, [6 x i8] }>
%"class.std::locale::facet.base" = type <{ i32 (...)**, i32 }>
%struct.__locale_struct = type { [13 x %struct.__locale_data*], i16*, i32*, i32*, [13 x i8*] }
%struct.__locale_data = type opaque
%"class.std::num_put" = type { %"class.std::locale::facet.base", [4 x i8] }
%"class.std::num_get" = type { %"class.std::locale::facet.base", [4 x i8] }

@_ZStL8__ioinit = internal global %"class.std::ios_base::Init" zeroinitializer, align 1
@__dso_handle = external hidden global i8
@_ZSt4cout = external dso_local global %"class.std::basic_ostream", align 8
@llvm.global_ctors = appending global [1 x { i32, void ()*, i8* }] [{ i32, void ()*, i8* } { i32 65535, void ()* @_GLOBAL__sub_I_example1.cpp, i8* null }]

declare dso_local void @_ZNSt8ios_base4InitC1Ev(%"class.std::ios_base::Init"* nonnull align 1 dereferenceable(1)) unnamed_addr #0

; Function Attrs: nounwind
declare dso_local void @_ZNSt8ios_base4InitD1Ev(%"class.std::ios_base::Init"* nonnull align 1 dereferenceable(1)) unnamed_addr #1

; Function Attrs: nofree nounwind
declare dso_local i32 @__cxa_atexit(void (i8*)*, i8*, i8*) local_unnamed_addr #2

; Function Attrs: mustprogress nounwind uwtable
define dso_local i32 @_Z6retvalv() local_unnamed_addr #3 {
entry:
  %call = call i32 @rand() #7
  %rem = srem i32 %call, 5
  ret i32 %rem
}

; Function Attrs: nounwind
declare dso_local i32 @rand() local_unnamed_addr #1

; Function Attrs: mustprogress norecurse uwtable
define dso_local i32 @main() local_unnamed_addr #4 {
entry:
  %call.i = call i32 @rand() #7
  %rem.i = srem i32 %call.i, 5
  %call.i9 = call i32 @rand() #7
  %rem.i10 = srem i32 %call.i9, 5
  %new_alloca_1 = alloca i32, align 4
  %new_alloca_2 = alloca i32, align 4
  %new_add = add i32 %rem.i10, 232
  %new_mul = mul i32 %rem.i10, 232
  %equals_compare = icmp eq i32 %new_add, %new_mul
  %mul_1 = mul i32 456, 534
  %new_add_use = add i32 %mul_1, 534
  br i1 %equals_compare, label %0, label %1

0:                                                ; preds = %entry
  store i32 %new_add, i32* %new_alloca_1, align 4
  br label %2

1:                                                ; preds = %entry
  store i32 %new_mul, i32* %new_alloca_2, align 4
  br label %2

2:                                                ; preds = %1, %0
  %call3 = call nonnull align 8 dereferenceable(8) %"class.std::basic_ostream"* @_ZNSolsEi(%"class.std::basic_ostream"* nonnull align 8 dereferenceable(8) @_ZSt4cout, i32 %mul_1)
  %3 = bitcast %"class.std::basic_ostream"* %call3 to i8**
  %vtable.i = load i8*, i8** %3, align 8, !tbaa !3
  %vbase.offset.ptr.i = getelementptr i8, i8* %vtable.i, i64 -24
  %4 = bitcast i8* %vbase.offset.ptr.i to i64*
  %vbase.offset.i = load i64, i64* %4, align 8
  %5 = bitcast %"class.std::basic_ostream"* %call3 to i8*
  %_M_ctype.i.idx.i = add nsw i64 %vbase.offset.i, 240
  %_M_ctype.i.i = getelementptr inbounds i8, i8* %5, i64 %_M_ctype.i.idx.i
  %6 = bitcast i8* %_M_ctype.i.i to %"class.std::ctype"**
  %7 = load %"class.std::ctype"*, %"class.std::ctype"** %6, align 8, !tbaa !6
  %tobool.not.i.i.i = icmp eq %"class.std::ctype"* %7, null
  br i1 %tobool.not.i.i.i, label %if.then.i.i.i, label %_ZSt13__check_facetISt5ctypeIcEERKT_PS3_.exit.i.i

if.then.i.i.i:                                    ; preds = %2
  call void @_ZSt16__throw_bad_castv() #8
  unreachable

_ZSt13__check_facetISt5ctypeIcEERKT_PS3_.exit.i.i: ; preds = %2
  %_M_widen_ok.i.i.i = getelementptr inbounds %"class.std::ctype", %"class.std::ctype"* %7, i64 0, i32 8
  %8 = load i8, i8* %_M_widen_ok.i.i.i, align 8, !tbaa !11
  %tobool.not.i3.i.i = icmp eq i8 %8, 0
  br i1 %tobool.not.i3.i.i, label %if.end.i.i.i, label %if.then.i4.i.i

if.then.i4.i.i:                                   ; preds = %_ZSt13__check_facetISt5ctypeIcEERKT_PS3_.exit.i.i
  %arrayidx.i.i.i = getelementptr inbounds %"class.std::ctype", %"class.std::ctype"* %7, i64 0, i32 9, i64 10
  %9 = load i8, i8* %arrayidx.i.i.i, align 1, !tbaa !13
  br label %_ZSt4endlIcSt11char_traitsIcEERSt13basic_ostreamIT_T0_ES6_.exit

if.end.i.i.i:                                     ; preds = %_ZSt13__check_facetISt5ctypeIcEERKT_PS3_.exit.i.i
  call void @_ZNKSt5ctypeIcE13_M_widen_initEv(%"class.std::ctype"* nonnull align 8 dereferenceable(570) %7)
  %10 = bitcast %"class.std::ctype"* %7 to i8 (%"class.std::ctype"*, i8)***
  %vtable.i.i.i = load i8 (%"class.std::ctype"*, i8)**, i8 (%"class.std::ctype"*, i8)*** %10, align 8, !tbaa !3
  %vfn.i.i.i = getelementptr inbounds i8 (%"class.std::ctype"*, i8)*, i8 (%"class.std::ctype"*, i8)** %vtable.i.i.i, i64 6
  %11 = load i8 (%"class.std::ctype"*, i8)*, i8 (%"class.std::ctype"*, i8)** %vfn.i.i.i, align 8
  %call.i.i.i = call signext i8 %11(%"class.std::ctype"* nonnull align 8 dereferenceable(570) %7, i8 signext 10)
  br label %_ZSt4endlIcSt11char_traitsIcEERSt13basic_ostreamIT_T0_ES6_.exit

_ZSt4endlIcSt11char_traitsIcEERSt13basic_ostreamIT_T0_ES6_.exit: ; preds = %if.end.i.i.i, %if.then.i4.i.i
  %retval.0.i.i.i = phi i8 [ %9, %if.then.i4.i.i ], [ %call.i.i.i, %if.end.i.i.i ]
  %call1.i = call nonnull align 8 dereferenceable(8) %"class.std::basic_ostream"* @_ZNSo3putEc(%"class.std::basic_ostream"* nonnull align 8 dereferenceable(8) %call3, i8 signext %retval.0.i.i.i)
  %call.i.i = call nonnull align 8 dereferenceable(8) %"class.std::basic_ostream"* @_ZNSo5flushEv(%"class.std::basic_ostream"* nonnull align 8 dereferenceable(8) %call1.i)
  ret i32 0
}

declare dso_local nonnull align 8 dereferenceable(8) %"class.std::basic_ostream"* @_ZNSolsEi(%"class.std::basic_ostream"* nonnull align 8 dereferenceable(8), i32) local_unnamed_addr #0

declare dso_local nonnull align 8 dereferenceable(8) %"class.std::basic_ostream"* @_ZNSo3putEc(%"class.std::basic_ostream"* nonnull align 8 dereferenceable(8), i8 signext) local_unnamed_addr #0

declare dso_local nonnull align 8 dereferenceable(8) %"class.std::basic_ostream"* @_ZNSo5flushEv(%"class.std::basic_ostream"* nonnull align 8 dereferenceable(8)) local_unnamed_addr #0

; Function Attrs: noreturn
declare dso_local void @_ZSt16__throw_bad_castv() local_unnamed_addr #5

declare dso_local void @_ZNKSt5ctypeIcE13_M_widen_initEv(%"class.std::ctype"* nonnull align 8 dereferenceable(570)) local_unnamed_addr #0

; Function Attrs: uwtable
define internal void @_GLOBAL__sub_I_example1.cpp() #6 section ".text.startup" {
entry:
  call void @_ZNSt8ios_base4InitC1Ev(%"class.std::ios_base::Init"* nonnull align 1 dereferenceable(1) @_ZStL8__ioinit)
  %0 = call i32 @__cxa_atexit(void (i8*)* bitcast (void (%"class.std::ios_base::Init"*)* @_ZNSt8ios_base4InitD1Ev to void (i8*)*), i8* getelementptr inbounds (%"class.std::ios_base::Init", %"class.std::ios_base::Init"* @_ZStL8__ioinit, i64 0, i32 0), i8* nonnull @__dso_handle) #7
  ret void
}

attributes #0 = { "frame-pointer"="none" "no-trapping-math"="true" "stack-protector-buffer-size"="8" "target-cpu"="x86-64" "target-features"="+cx8,+fxsr,+mmx,+sse,+sse2,+x87" "tune-cpu"="generic" }
attributes #1 = { nounwind "frame-pointer"="none" "no-trapping-math"="true" "stack-protector-buffer-size"="8" "target-cpu"="x86-64" "target-features"="+cx8,+fxsr,+mmx,+sse,+sse2,+x87" "tune-cpu"="generic" }
attributes #2 = { nofree nounwind }
attributes #3 = { mustprogress nounwind uwtable "frame-pointer"="none" "min-legal-vector-width"="0" "no-trapping-math"="true" "stack-protector-buffer-size"="8" "target-cpu"="x86-64" "target-features"="+cx8,+fxsr,+mmx,+sse,+sse2,+x87" "tune-cpu"="generic" }
attributes #4 = { mustprogress norecurse uwtable "frame-pointer"="none" "min-legal-vector-width"="0" "no-trapping-math"="true" "stack-protector-buffer-size"="8" "target-cpu"="x86-64" "target-features"="+cx8,+fxsr,+mmx,+sse,+sse2,+x87" "tune-cpu"="generic" }
attributes #5 = { noreturn "frame-pointer"="none" "no-trapping-math"="true" "stack-protector-buffer-size"="8" "target-cpu"="x86-64" "target-features"="+cx8,+fxsr,+mmx,+sse,+sse2,+x87" "tune-cpu"="generic" }
attributes #6 = { uwtable "frame-pointer"="none" "min-legal-vector-width"="0" "no-trapping-math"="true" "stack-protector-buffer-size"="8" "target-cpu"="x86-64" "target-features"="+cx8,+fxsr,+mmx,+sse,+sse2,+x87" "tune-cpu"="generic" }
attributes #7 = { nounwind }
attributes #8 = { noreturn }

!llvm.module.flags = !{!0, !1}
!llvm.ident = !{!2}

!0 = !{i32 1, !"wchar_size", i32 4}
!1 = !{i32 7, !"uwtable", i32 1}
!2 = !{!"clang version 13.0.1 (https://github.com/llvm/llvm-project 75e33f71c2dae584b13a7d1186ae0a038ba98838)"}
!3 = !{!4, !4, i64 0}
!4 = !{!"vtable pointer", !5, i64 0}
!5 = !{!"Simple C++ TBAA"}
!6 = !{!7, !8, i64 240}
!7 = !{!"_ZTSSt9basic_iosIcSt11char_traitsIcEE", !8, i64 216, !9, i64 224, !10, i64 225, !8, i64 232, !8, i64 240, !8, i64 248, !8, i64 256}
!8 = !{!"any pointer", !9, i64 0}
!9 = !{!"omnipotent char", !5, i64 0}
!10 = !{!"bool", !9, i64 0}
!11 = !{!12, !9, i64 56}
!12 = !{!"_ZTSSt5ctypeIcE", !8, i64 16, !10, i64 24, !8, i64 32, !8, i64 40, !8, i64 48, !9, i64 56, !9, i64 57, !9, i64 313, !9, i64 569}
!13 = !{!9, !9, i64 0}
